target datalayout = "e-m:e-p270:32:32-p271:32:32-p272:64:64-i64:64-i128:128-f80:128-n8:16:32:64-S128"
target triple = "x86_64-unknown-linux-gnu"

%"class.std::__cxx11::basic_string" = type { %"struct.std::__cxx11::basic_string<char>::_Alloc_hider", i64, %union.anon }
%"struct.std::__cxx11::basic_string<char>::_Alloc_hider" = type { ptr }
%union.anon = type { i64, [8 x i8] }
%"struct.proxygen::(anonymous namespace)::FormattedDate" = type { i64, %"class.std::__cxx11::basic_string" }
%"struct.folly::SingletonThreadLocal<proxygen::(anonymous namespace)::FormattedDate, DateTag>::ObjectWrapper" = type { %"struct.proxygen::(anonymous namespace)::FormattedDate" }
%"struct.folly::detail::DefaultMake" = type { i8 }

; Function Attrs: mustprogress nounwind uwtable
define internal void @_ZN8proxygen12_GLOBAL__N_113FormattedDateC2Ev(ptr noundef nonnull align 8 dereferenceable(40) %this) unnamed_addr #4 align 2 {
entry:
  %this.addr = alloca ptr, align 8
  store ptr %this, ptr %this.addr, align 8
  %this1 = load ptr, ptr %this.addr, align 8
  %lastTime = getelementptr inbounds %"struct.proxygen::(anonymous namespace)::FormattedDate", ptr %this1, i32 0, i32 0
  store i64 0, ptr %lastTime, align 8
  %date = getelementptr inbounds %"struct.proxygen::(anonymous namespace)::FormattedDate", ptr %this1, i32 0, i32 1
  call void @_ZNSt7__cxx1112basic_stringIcSt11char_traitsIcESaIcEEC1Ev(ptr noundef nonnull align 8 dereferenceable(32) %date) #2
  ret void
}

; Function Attrs: mustprogress nounwind uwtable
define internal void @_ZNK5folly6detail11DefaultMakeIN8proxygen12_GLOBAL__N_113FormattedDateEEclEv(ptr noalias sret(%"struct.proxygen::(anonymous namespace)::FormattedDate") align 8 %agg.result, ptr noundef nonnull align 1 dereferenceable(1) %this) #4 align 2 {
entry:
  %result.ptr = alloca ptr, align 8
  %this.addr = alloca ptr, align 8
  store ptr %agg.result, ptr %result.ptr, align 8
  store ptr %this, ptr %this.addr, align 8
  call void @llvm.memset.p0.i64(ptr align 8 %agg.result, i8 0, i64 40, i1 false)
  call void @_ZN8proxygen12_GLOBAL__N_113FormattedDateC2Ev(ptr noundef nonnull align 8 dereferenceable(40) %agg.result) #2
  ret void
}

; Function Attrs: mustprogress uwtable
define internal void @_ZN5folly20SingletonThreadLocalIN8proxygen12_GLOBAL__N_113FormattedDateEZNS1_11HTTPMessage16formatDateHeaderB5cxx11EvE7DateTagNS_6detail11DefaultMakeIS3_EES5_E13ObjectWrapperC2Ev(ptr noundef nonnull align 8 dereferenceable(40) %this) unnamed_addr #3 align 2 {
entry:
  %this.addr = alloca ptr, align 8
  %ref.tmp = alloca %"struct.folly::detail::DefaultMake", align 1
  store ptr %this, ptr %this.addr, align 8
  %this1 = load ptr, ptr %this.addr, align 8
  %object = getelementptr inbounds %"struct.folly::SingletonThreadLocal<proxygen::(anonymous namespace)::FormattedDate, DateTag>::ObjectWrapper", ptr %this1, i32 0, i32 0
  call void @_ZNK5folly6detail11DefaultMakeIN8proxygen12_GLOBAL__N_113FormattedDateEEclEv(ptr sret(%"struct.proxygen::(anonymous namespace)::FormattedDate") align 8 %object, ptr noundef nonnull align 1 dereferenceable(1) %ref.tmp)
  ret void
}

; Function Attrs: mustprogress uwtable
define internal void @_ZN5folly20SingletonThreadLocalIN8proxygen12_GLOBAL__N_113FormattedDateEZNS1_11HTTPMessage16formatDateHeaderB5cxx11EvE7DateTagNS_6detail11DefaultMakeIS3_EES5_E7WrapperC2Ev(ptr noundef nonnull align 8 dereferenceable(152) %this) unnamed_addr #3 align 2 {
entry:
  %this.addr = alloca ptr, align 8
  store ptr %this, ptr %this.addr, align 8
  %this1 = load ptr, ptr %this.addr, align 8
  call void @_ZN5folly20SingletonThreadLocalIN8proxygen12_GLOBAL__N_113FormattedDateEZNS1_11HTTPMessage16formatDateHeaderB5cxx11EvE7DateTagNS_6detail11DefaultMakeIS3_EES5_E13ObjectWrapperC2Ev(ptr noundef nonnull align 8 dereferenceable(40) %this1)
  %0 = getelementptr inbounds i8, ptr %this1, i64 40
  call void @_ZN5folly6detail25SingletonThreadLocalState7WrapperC2Ev(ptr noundef nonnull align 8 dereferenceable(112) %0) #2
  ret void
}

; Function Attrs: mustprogress uwtable
define internal noundef ptr @_ZZN5folly11ThreadLocalINS_20SingletonThreadLocalIN8proxygen12_GLOBAL__N_113FormattedDateEZNS2_11HTTPMessage16formatDateHeaderB5cxx11EvE7DateTagNS_6detail11DefaultMakeIS4_EES6_E7WrapperES6_vEC1EvENKUlvE_clEv(ptr noundef nonnull align 1 dereferenceable(1) %this) #3 align 2 personality ptr @__gxx_personality_v0 {
entry:
  %this.addr = alloca ptr, align 8
  %exn.slot = alloca ptr, align 8
  %ehselector.slot = alloca i32, align 4
  store ptr %this, ptr %this.addr, align 8
  %call = call noalias noundef nonnull ptr @_Znwm(i64 noundef 152) #25
  call void @llvm.memset.p0.i64(ptr align 16 %call, i8 0, i64 152, i1 false)
  invoke void @_ZN5folly20SingletonThreadLocalIN8proxygen12_GLOBAL__N_113FormattedDateEZNS1_11HTTPMessage16formatDateHeaderB5cxx11EvE7DateTagNS_6detail11DefaultMakeIS3_EES5_E7WrapperC2Ev(ptr noundef nonnull align 8 dereferenceable(152) %call)
          to label %invoke.cont unwind label %lpad

invoke.cont:                                      ; preds = %entry
  ret ptr %call

lpad:                                             ; preds = %entry
  %0 = landingpad { ptr, i32 }
          cleanup
  %1 = extractvalue { ptr, i32 } %0, 0
  store ptr %1, ptr %exn.slot, align 8
  %2 = extractvalue { ptr, i32 } %0, 1
  store i32 %2, ptr %ehselector.slot, align 4
  call void @_ZdlPv(ptr noundef %call) #26
  br label %eh.resume

eh.resume:                                        ; preds = %lpad
  %exn = load ptr, ptr %exn.slot, align 8
  %sel = load i32, ptr %ehselector.slot, align 4
  %lpad.val = insertvalue { ptr, i32 } poison, ptr %exn, 0
  %lpad.val2 = insertvalue { ptr, i32 } %lpad.val, i32 %sel, 1
  resume { ptr, i32 } %lpad.val2
}

; Function Attrs: mustprogress nounwind uwtable
define linkonce_odr noundef ptr @_ZNKSt9_Any_data9_M_accessEv(ptr noundef nonnull align 8 dereferenceable(16) %this) #4 comdat align 2 {
entry:
  %this.addr = alloca ptr, align 8
  store ptr %this, ptr %this.addr, align 8
  %this1 = load ptr, ptr %this.addr, align 8
  %arrayidx = getelementptr inbounds [16 x i8], ptr %this1, i64 0, i64 0
  ret ptr %arrayidx
}

; Function Attrs: mustprogress uwtable
define internal noundef ptr @_ZSt13__invoke_implIPN5folly20SingletonThreadLocalIN8proxygen12_GLOBAL__N_113FormattedDateEZNS2_11HTTPMessage16formatDateHeaderB5cxx11EvE7DateTagNS0_6detail11DefaultMakeIS4_EES6_E7WrapperERZNS0_11ThreadLocalISB_S6_vEC1EvEUlvE_JEET_St14__invoke_otherOT0_DpOT1_(ptr noundef nonnull align 1 dereferenceable(1) %__f) #3 {
entry:
  %__f.addr = alloca ptr, align 8
  store ptr %__f, ptr %__f.addr, align 8
  %0 = load ptr, ptr %__f.addr, align 8
  %call = call noundef ptr @_ZZN5folly11ThreadLocalINS_20SingletonThreadLocalIN8proxygen12_GLOBAL__N_113FormattedDateEZNS2_11HTTPMessage16formatDateHeaderB5cxx11EvE7DateTagNS_6detail11DefaultMakeIS4_EES6_E7WrapperES6_vEC1EvENKUlvE_clEv(ptr noundef nonnull align 1 dereferenceable(1) %0)
  ret ptr %call
}

; Function Attrs: mustprogress nounwind uwtable
define internal noundef nonnull align 1 dereferenceable(1) ptr @_ZNKSt9_Any_data9_M_accessIZN5folly11ThreadLocalINS1_20SingletonThreadLocalIN8proxygen12_GLOBAL__N_113FormattedDateEZNS4_11HTTPMessage16formatDateHeaderB5cxx11EvE7DateTagNS1_6detail11DefaultMakeIS6_EES8_E7WrapperES8_vEC1EvEUlvE_EERKT_v(ptr noundef nonnull align 8 dereferenceable(16) %this) #4 align 2 {
entry:
  %this.addr = alloca ptr, align 8
  store ptr %this, ptr %this.addr, align 8
  %this1 = load ptr, ptr %this.addr, align 8
  %call = call noundef ptr @_ZNKSt9_Any_data9_M_accessEv(ptr noundef nonnull align 8 dereferenceable(16) %this1) #2
  ret ptr %call
}

; Function Attrs: mustprogress uwtable
define internal noundef ptr @_ZSt10__invoke_rIPvRZN5folly11ThreadLocalINS1_20SingletonThreadLocalIN8proxygen12_GLOBAL__N_113FormattedDateEZNS4_11HTTPMessage16formatDateHeaderB5cxx11EvE7DateTagNS1_6detail11DefaultMakeIS6_EES8_E7WrapperES8_vEC1EvEUlvE_JEENSt9enable_ifIX16is_invocable_r_vIT_T0_DpT1_EESI_E4typeEOSJ_DpOSK_(ptr noundef nonnull align 1 dereferenceable(1) %__fn) #3 {
entry:
  %__fn.addr = alloca ptr, align 8
  store ptr %__fn, ptr %__fn.addr, align 8
  %0 = load ptr, ptr %__fn.addr, align 8
  %call = call noundef ptr @_ZSt13__invoke_implIPN5folly20SingletonThreadLocalIN8proxygen12_GLOBAL__N_113FormattedDateEZNS2_11HTTPMessage16formatDateHeaderB5cxx11EvE7DateTagNS0_6detail11DefaultMakeIS4_EES6_E7WrapperERZNS0_11ThreadLocalISB_S6_vEC1EvEUlvE_JEET_St14__invoke_otherOT0_DpOT1_(ptr noundef nonnull align 1 dereferenceable(1) %0)
  ret ptr %call
}

; Function Attrs: mustprogress nounwind uwtable
define internal noundef ptr @_ZNSt14_Function_base13_Base_managerIZN5folly11ThreadLocalINS1_20SingletonThreadLocalIN8proxygen12_GLOBAL__N_113FormattedDateEZNS4_11HTTPMessage16formatDateHeaderB5cxx11EvE7DateTagNS1_6detail11DefaultMakeIS6_EES8_E7WrapperES8_vEC1EvEUlvE_E14_M_get_pointerERKSt9_Any_data(ptr noundef nonnull align 8 dereferenceable(16) %__source) #4 align 2 {
entry:
  %__source.addr = alloca ptr, align 8
  %__f = alloca ptr, align 8
  store ptr %__source, ptr %__source.addr, align 8
  %0 = load ptr, ptr %__source.addr, align 8
  %call = call noundef nonnull align 1 dereferenceable(1) ptr @_ZNKSt9_Any_data9_M_accessIZN5folly11ThreadLocalINS1_20SingletonThreadLocalIN8proxygen12_GLOBAL__N_113FormattedDateEZNS4_11HTTPMessage16formatDateHeaderB5cxx11EvE7DateTagNS1_6detail11DefaultMakeIS6_EES8_E7WrapperES8_vEC1EvEUlvE_EERKT_v(ptr noundef nonnull align 8 dereferenceable(16) %0) #2
  store ptr %call, ptr %__f, align 8
  %1 = load ptr, ptr %__f, align 8
  ret ptr %1
}

; Function Attrs: mustprogress uwtable
define internal noundef ptr @_ZNSt17_Function_handlerIFPvvEZN5folly11ThreadLocalINS2_20SingletonThreadLocalIN8proxygen12_GLOBAL__N_113FormattedDateEZNS5_11HTTPMessage16formatDateHeaderB5cxx11EvE7DateTagNS2_6detail11DefaultMakeIS7_EES9_E7WrapperES9_vEC1EvEUlvE_E9_M_invokeERKSt9_Any_data(ptr noundef nonnull align 8 dereferenceable(16) %__functor) #3 align 2 {
entry:
  %__functor.addr = alloca ptr, align 8
  store ptr %__functor, ptr %__functor.addr, align 8
  %0 = load ptr, ptr %__functor.addr, align 8
  %call = call noundef ptr @_ZNSt14_Function_base13_Base_managerIZN5folly11ThreadLocalINS1_20SingletonThreadLocalIN8proxygen12_GLOBAL__N_113FormattedDateEZNS4_11HTTPMessage16formatDateHeaderB5cxx11EvE7DateTagNS1_6detail11DefaultMakeIS6_EES8_E7WrapperES8_vEC1EvEUlvE_E14_M_get_pointerERKSt9_Any_data(ptr noundef nonnull align 8 dereferenceable(16) %0) #2
  %call1 = call noundef ptr @_ZSt10__invoke_rIPvRZN5folly11ThreadLocalINS1_20SingletonThreadLocalIN8proxygen12_GLOBAL__N_113FormattedDateEZNS4_11HTTPMessage16formatDateHeaderB5cxx11EvE7DateTagNS1_6detail11DefaultMakeIS6_EES8_E7WrapperES8_vEC1EvEUlvE_JEENSt9enable_ifIX16is_invocable_r_vIT_T0_DpT1_EESI_E4typeEOSJ_DpOSK_(ptr noundef nonnull align 1 dereferenceable(1) %call)
  ret ptr %call1
}