; Function Attrs: mustprogress uwtable
define internal noundef nonnull ptr @_ZNSt17_Function_handlerIFPvvEZN5folly11ThreadLocalINS2_20SingletonThreadLocalIN8proxygen12_GLOBAL__N_113FormattedDateEZNS5_11HTTPMessage16formatDateHeaderB5cxx11EvE7DateTagNS2_6detail11DefaultMakeIS7_EES9_E7WrapperES9_vEC1EvEUlvE_E9_M_invokeERKSt9_Any_data(ptr nocapture nonnull readnone align 8 %__functor) #2 align 2 personality ptr @__gxx_personality_v0 {
entry:
  %call.i.i.i = tail call noalias noundef nonnull dereferenceable(152) ptr @_Znwm(i64 noundef 152) #33
  %date.i.i.i.i.i.i.i = getelementptr inbounds i8, ptr %call.i.i.i, i64 8
  tail call void @llvm.memset.p0.i64(ptr noundef nonnull align 8 dereferenceable(152) %call.i.i.i, i8 0, i64 152, i1 false)
  tail call void @_ZNSt7__cxx1112basic_stringIcSt11char_traitsIcESaIcEEC1Ev(ptr noundef nonnull align 8 dereferenceable(32) %date.i.i.i.i.i.i.i) #23
  %0 = getelementptr inbounds i8, ptr %call.i.i.i, i64 40
  tail call void @_ZN5folly6detail25SingletonThreadLocalState7WrapperC2Ev(ptr noundef nonnull align 8 dereferenceable(112) %0) #23
  ret ptr %call.i.i.i
}